target datalayout = "e-m:e-p270:32:32-p271:32:32-p272:64:64-i64:64-i128:128-f80:128-n8:16:32:64-S128"
target triple = "x86_64-pc-linux-gnu"

%struct.TParser = type { ptr, i32, ptr, ptr, i8, i32, ptr, i8, i8, i8, ptr, i32, i32, i32 }
%struct.TParserPosition = type { i32, i32, i32, i32, i32, i32, ptr, ptr }

; Function Attrs: nounwind uwtable
define internal ptr @newTParserPosition(ptr noundef %0) #0 {
  %2 = alloca ptr, align 8
  %3 = alloca ptr, align 8
  store ptr %0, ptr %2, align 8
  call void @llvm.lifetime.start.p0(i64 8, ptr %3) #11
  %4 = call ptr @palloc(i64 noundef 40)
  store ptr %4, ptr %3, align 8
  %5 = load ptr, ptr %2, align 8
  %6 = icmp ne ptr %5, null
  br i1 %6, label %7, label %10

7:                                                ; preds = %1
  %8 = load ptr, ptr %3, align 8
  %9 = load ptr, ptr %2, align 8
  call void @llvm.memcpy.p0.p0.i64(ptr align 8 %8, ptr align 8 %9, i64 40, i1 false)
  br label %12

10:                                               ; preds = %1
  %11 = load ptr, ptr %3, align 8
  call void @llvm.memset.p0.i64(ptr align 8 %11, i8 0, i64 40, i1 false)
  br label %12

12:                                               ; preds = %10, %7
  %13 = load ptr, ptr %2, align 8
  %14 = load ptr, ptr %3, align 8
  %15 = getelementptr inbounds nuw %struct.TParserPosition, ptr %14, i32 0, i32 6
  store ptr %13, ptr %15, align 8
  %16 = load ptr, ptr %3, align 8
  %17 = getelementptr inbounds nuw %struct.TParserPosition, ptr %16, i32 0, i32 7
  store ptr null, ptr %17, align 8
  %18 = load ptr, ptr %3, align 8
  call void @llvm.lifetime.end.p0(i64 8, ptr %3) #11
  ret ptr %18
}

; Function Attrs: nounwind uwtable
define internal void @TParserCopyClose(ptr noundef %0) #0 {
  %2 = alloca ptr, align 8
  %3 = alloca ptr, align 8
  store ptr %0, ptr %2, align 8
  br label %4

4:                                                ; preds = %9, %1
  %5 = load ptr, ptr %2, align 8
  %6 = getelementptr inbounds nuw %struct.TParser, ptr %5, i32 0, i32 6
  %7 = load ptr, ptr %6, align 8
  %8 = icmp ne ptr %7, null
  br i1 %8, label %9, label %21

9:                                                ; preds = %4
  call void @llvm.lifetime.start.p0(i64 8, ptr %3) #11
  %10 = load ptr, ptr %2, align 8
  %11 = getelementptr inbounds nuw %struct.TParser, ptr %10, i32 0, i32 6
  %12 = load ptr, ptr %11, align 8
  %13 = getelementptr inbounds nuw %struct.TParserPosition, ptr %12, i32 0, i32 6
  %14 = load ptr, ptr %13, align 8
  store ptr %14, ptr %3, align 8
  %15 = load ptr, ptr %2, align 8
  %16 = getelementptr inbounds nuw %struct.TParser, ptr %15, i32 0, i32 6
  %17 = load ptr, ptr %16, align 8
  call void @pfree(ptr noundef %17)
  %18 = load ptr, ptr %3, align 8
  %19 = load ptr, ptr %2, align 8
  %20 = getelementptr inbounds nuw %struct.TParser, ptr %19, i32 0, i32 6
  store ptr %18, ptr %20, align 8
  call void @llvm.lifetime.end.p0(i64 8, ptr %3) #11
  br label %4, !llvm.loop !31

21:                                               ; preds = %4
  %22 = load ptr, ptr %2, align 8
  call void @pfree(ptr noundef %22)
  ret void
}

; Function Attrs: nounwind uwtable
define internal ptr @TParserCopyInit(ptr noundef %0) #0 {
  %2 = alloca ptr, align 8
  %3 = alloca ptr, align 8
  store ptr %0, ptr %2, align 8
  call void @llvm.lifetime.start.p0(i64 8, ptr %3) #11
  %4 = call ptr @palloc0(i64 noundef 80)
  store ptr %4, ptr %3, align 8
  %5 = load ptr, ptr %2, align 8
  %6 = getelementptr inbounds nuw %struct.TParser, ptr %5, i32 0, i32 5
  %7 = load i32, ptr %6, align 4
  %8 = load ptr, ptr %3, align 8
  %9 = getelementptr inbounds nuw %struct.TParser, ptr %8, i32 0, i32 5
  store i32 %7, ptr %9, align 4
  %10 = load ptr, ptr %2, align 8
  %11 = getelementptr inbounds nuw %struct.TParser, ptr %10, i32 0, i32 0
  %12 = load ptr, ptr %11, align 8
  %13 = load ptr, ptr %2, align 8
  %14 = getelementptr inbounds nuw %struct.TParser, ptr %13, i32 0, i32 6
  %15 = load ptr, ptr %14, align 8
  %16 = getelementptr inbounds nuw %struct.TParserPosition, ptr %15, i32 0, i32 0
  %17 = load i32, ptr %16, align 8
  %18 = sext i32 %17 to i64
  %19 = getelementptr inbounds i8, ptr %12, i64 %18
  %20 = load ptr, ptr %3, align 8
  %21 = getelementptr inbounds nuw %struct.TParser, ptr %20, i32 0, i32 0
  store ptr %19, ptr %21, align 8
  %22 = load ptr, ptr %2, align 8
  %23 = getelementptr inbounds nuw %struct.TParser, ptr %22, i32 0, i32 1
  %24 = load i32, ptr %23, align 8
  %25 = load ptr, ptr %2, align 8
  %26 = getelementptr inbounds nuw %struct.TParser, ptr %25, i32 0, i32 6
  %27 = load ptr, ptr %26, align 8
  %28 = getelementptr inbounds nuw %struct.TParserPosition, ptr %27, i32 0, i32 0
  %29 = load i32, ptr %28, align 8
  %30 = sub i32 %24, %29
  %31 = load ptr, ptr %3, align 8
  %32 = getelementptr inbounds nuw %struct.TParser, ptr %31, i32 0, i32 1
  store i32 %30, ptr %32, align 8
  %33 = load ptr, ptr %2, align 8
  %34 = getelementptr inbounds nuw %struct.TParser, ptr %33, i32 0, i32 4
  %35 = load i8, ptr %34, align 8, !range !4, !noundef !5
  %36 = trunc i8 %35 to i1
  %37 = load ptr, ptr %3, align 8
  %38 = getelementptr inbounds nuw %struct.TParser, ptr %37, i32 0, i32 4
  %39 = zext i1 %36 to i8
  store i8 %39, ptr %38, align 8
  %40 = load ptr, ptr %2, align 8
  %41 = getelementptr inbounds nuw %struct.TParser, ptr %40, i32 0, i32 3
  %42 = load ptr, ptr %41, align 8
  %43 = icmp ne ptr %42, null
  br i1 %43, label %44, label %57

44:                                               ; preds = %1
  %45 = load ptr, ptr %2, align 8
  %46 = getelementptr inbounds nuw %struct.TParser, ptr %45, i32 0, i32 3
  %47 = load ptr, ptr %46, align 8
  %48 = load ptr, ptr %2, align 8
  %49 = getelementptr inbounds nuw %struct.TParser, ptr %48, i32 0, i32 6
  %50 = load ptr, ptr %49, align 8
  %51 = getelementptr inbounds nuw %struct.TParserPosition, ptr %50, i32 0, i32 1
  %52 = load i32, ptr %51, align 4
  %53 = sext i32 %52 to i64
  %54 = getelementptr inbounds i32, ptr %47, i64 %53
  %55 = load ptr, ptr %3, align 8
  %56 = getelementptr inbounds nuw %struct.TParser, ptr %55, i32 0, i32 3
  store ptr %54, ptr %56, align 8
  br label %57

57:                                               ; preds = %44, %1
  %58 = load ptr, ptr %2, align 8
  %59 = getelementptr inbounds nuw %struct.TParser, ptr %58, i32 0, i32 2
  %60 = load ptr, ptr %59, align 8
  %61 = icmp ne ptr %60, null
  br i1 %61, label %62, label %75

62:                                               ; preds = %57
  %63 = load ptr, ptr %2, align 8
  %64 = getelementptr inbounds nuw %struct.TParser, ptr %63, i32 0, i32 2
  %65 = load ptr, ptr %64, align 8
  %66 = load ptr, ptr %2, align 8
  %67 = getelementptr inbounds nuw %struct.TParser, ptr %66, i32 0, i32 6
  %68 = load ptr, ptr %67, align 8
  %69 = getelementptr inbounds nuw %struct.TParserPosition, ptr %68, i32 0, i32 1
  %70 = load i32, ptr %69, align 4
  %71 = sext i32 %70 to i64
  %72 = getelementptr inbounds i32, ptr %65, i64 %71
  %73 = load ptr, ptr %3, align 8
  %74 = getelementptr inbounds nuw %struct.TParser, ptr %73, i32 0, i32 2
  store ptr %72, ptr %74, align 8
  br label %75

75:                                               ; preds = %62, %57
  %76 = call ptr @newTParserPosition(ptr noundef null)
  %77 = load ptr, ptr %3, align 8
  %78 = getelementptr inbounds nuw %struct.TParser, ptr %77, i32 0, i32 6
  store ptr %76, ptr %78, align 8
  %79 = load ptr, ptr %3, align 8
  %80 = getelementptr inbounds nuw %struct.TParser, ptr %79, i32 0, i32 6
  %81 = load ptr, ptr %80, align 8
  %82 = getelementptr inbounds nuw %struct.TParserPosition, ptr %81, i32 0, i32 5
  store i32 0, ptr %82, align 4
  %83 = load ptr, ptr %3, align 8
  call void @llvm.lifetime.end.p0(i64 8, ptr %3) #11
  ret ptr %83
}

; Function Attrs: nounwind uwtable
define internal i32 @p_ishost(ptr noundef %0) #0 {
  %2 = alloca ptr, align 8
  %3 = alloca ptr, align 8
  %4 = alloca i32, align 4
  store ptr %0, ptr %2, align 8
  call void @llvm.lifetime.start.p0(i64 8, ptr %3) #11
  %5 = load ptr, ptr %2, align 8
  %6 = call ptr @TParserCopyInit(ptr noundef %5)
  store ptr %6, ptr %3, align 8
  call void @llvm.lifetime.start.p0(i64 4, ptr %4) #11
  store i32 0, ptr %4, align 4
  %7 = load ptr, ptr %3, align 8
  %8 = getelementptr inbounds nuw %struct.TParser, ptr %7, i32 0, i32 8
  store i8 1, ptr %8, align 1
  call void @check_stack_depth()
  %9 = load ptr, ptr %3, align 8
  %10 = call zeroext i1 @TParserGet(ptr noundef %9)
  br i1 %10, label %11, label %62

11:                                               ; preds = %1
  %12 = load ptr, ptr %3, align 8
  %13 = getelementptr inbounds nuw %struct.TParser, ptr %12, i32 0, i32 13
  %14 = load i32, ptr %13, align 8
  %15 = icmp eq i32 %14, 6
  br i1 %15, label %16, label %62

16:                                               ; preds = %11
  %17 = load ptr, ptr %3, align 8
  %18 = getelementptr inbounds nuw %struct.TParser, ptr %17, i32 0, i32 11
  %19 = load i32, ptr %18, align 8
  %20 = load ptr, ptr %2, align 8
  %21 = getelementptr inbounds nuw %struct.TParser, ptr %20, i32 0, i32 6
  %22 = load ptr, ptr %21, align 8
  %23 = getelementptr inbounds nuw %struct.TParserPosition, ptr %22, i32 0, i32 0
  %24 = load i32, ptr %23, align 8
  %25 = add i32 %24, %19
  store i32 %25, ptr %23, align 8
  %26 = load ptr, ptr %3, align 8
  %27 = getelementptr inbounds nuw %struct.TParser, ptr %26, i32 0, i32 12
  %28 = load i32, ptr %27, align 4
  %29 = load ptr, ptr %2, align 8
  %30 = getelementptr inbounds nuw %struct.TParser, ptr %29, i32 0, i32 6
  %31 = load ptr, ptr %30, align 8
  %32 = getelementptr inbounds nuw %struct.TParserPosition, ptr %31, i32 0, i32 1
  %33 = load i32, ptr %32, align 4
  %34 = add i32 %33, %28
  store i32 %34, ptr %32, align 4
  %35 = load ptr, ptr %3, align 8
  %36 = getelementptr inbounds nuw %struct.TParser, ptr %35, i32 0, i32 11
  %37 = load i32, ptr %36, align 8
  %38 = load ptr, ptr %2, align 8
  %39 = getelementptr inbounds nuw %struct.TParser, ptr %38, i32 0, i32 6
  %40 = load ptr, ptr %39, align 8
  %41 = getelementptr inbounds nuw %struct.TParserPosition, ptr %40, i32 0, i32 3
  %42 = load i32, ptr %41, align 4
  %43 = add i32 %42, %37
  store i32 %43, ptr %41, align 4
  %44 = load ptr, ptr %3, align 8
  %45 = getelementptr inbounds nuw %struct.TParser, ptr %44, i32 0, i32 12
  %46 = load i32, ptr %45, align 4
  %47 = load ptr, ptr %2, align 8
  %48 = getelementptr inbounds nuw %struct.TParser, ptr %47, i32 0, i32 6
  %49 = load ptr, ptr %48, align 8
  %50 = getelementptr inbounds nuw %struct.TParserPosition, ptr %49, i32 0, i32 4
  %51 = load i32, ptr %50, align 8
  %52 = add i32 %51, %46
  store i32 %52, ptr %50, align 8
  %53 = load ptr, ptr %3, align 8
  %54 = getelementptr inbounds nuw %struct.TParser, ptr %53, i32 0, i32 6
  %55 = load ptr, ptr %54, align 8
  %56 = getelementptr inbounds nuw %struct.TParserPosition, ptr %55, i32 0, i32 2
  %57 = load i32, ptr %56, align 8
  %58 = load ptr, ptr %2, align 8
  %59 = getelementptr inbounds nuw %struct.TParser, ptr %58, i32 0, i32 6
  %60 = load ptr, ptr %59, align 8
  %61 = getelementptr inbounds nuw %struct.TParserPosition, ptr %60, i32 0, i32 2
  store i32 %57, ptr %61, align 8
  store i32 1, ptr %4, align 4
  br label %62

62:                                               ; preds = %16, %11, %1
  %63 = load ptr, ptr %3, align 8
  call void @TParserCopyClose(ptr noundef %63)
  %64 = load i32, ptr %4, align 4
  call void @llvm.lifetime.end.p0(i64 4, ptr %4) #11
  call void @llvm.lifetime.end.p0(i64 8, ptr %3) #11
  ret i32 %64
}