; Function Attrs: nounwind uwtable
define internal range(i32 0, 2) i32 @p_ishost(ptr noundef readonly captures(none) %0) #0 {
  %2 = tail call ptr @palloc0(i64 noundef 80) #16
  %3 = getelementptr inbounds nuw i8, ptr %0, i64 36
  %4 = load i32, ptr %3, align 4
  %5 = getelementptr inbounds nuw i8, ptr %2, i64 36
  store i32 %4, ptr %5, align 4
  %6 = load ptr, ptr %0, align 8
  %7 = getelementptr inbounds nuw i8, ptr %0, i64 40
  %8 = load ptr, ptr %7, align 8
  %9 = load i32, ptr %8, align 8
  %10 = sext i32 %9 to i64
  %11 = getelementptr inbounds i8, ptr %6, i64 %10
  store ptr %11, ptr %2, align 8
  %12 = getelementptr inbounds nuw i8, ptr %0, i64 8
  %13 = load i32, ptr %12, align 8
  %14 = load ptr, ptr %7, align 8
  %15 = load i32, ptr %14, align 8
  %16 = sub i32 %13, %15
  %17 = getelementptr inbounds nuw i8, ptr %2, i64 8
  store i32 %16, ptr %17, align 8
  %18 = getelementptr inbounds nuw i8, ptr %0, i64 32
  %19 = load i8, ptr %18, align 8, !range !4, !noundef !5
  %20 = getelementptr inbounds nuw i8, ptr %2, i64 32
  store i8 %19, ptr %20, align 8
  %21 = getelementptr inbounds nuw i8, ptr %0, i64 24
  %22 = load ptr, ptr %21, align 8
  %.not.i = icmp eq ptr %22, null
  br i1 %.not.i, label %30, label %23

23:                                               ; preds = %1
  %24 = load ptr, ptr %7, align 8
  %25 = getelementptr inbounds nuw i8, ptr %24, i64 4
  %26 = load i32, ptr %25, align 4
  %27 = sext i32 %26 to i64
  %28 = getelementptr inbounds i32, ptr %22, i64 %27
  %29 = getelementptr inbounds nuw i8, ptr %2, i64 24
  store ptr %28, ptr %29, align 8
  br label %30

30:                                               ; preds = %23, %1
  %31 = getelementptr inbounds nuw i8, ptr %0, i64 16
  %32 = load ptr, ptr %31, align 8
  %.not22.i = icmp eq ptr %32, null
  br i1 %.not22.i, label %TParserCopyInit.exit, label %33

33:                                               ; preds = %30
  %34 = load ptr, ptr %7, align 8
  %35 = getelementptr inbounds nuw i8, ptr %34, i64 4
  %36 = load i32, ptr %35, align 4
  %37 = sext i32 %36 to i64
  %38 = getelementptr inbounds i32, ptr %32, i64 %37
  %39 = getelementptr inbounds nuw i8, ptr %2, i64 16
  store ptr %38, ptr %39, align 8
  br label %TParserCopyInit.exit

TParserCopyInit.exit:                             ; preds = %30, %33
  %40 = tail call ptr @palloc(i64 noundef 40) #16
  %41 = getelementptr inbounds nuw i8, ptr %2, i64 40
  tail call void @llvm.memset.p0.i64(ptr noundef nonnull align 8 dereferenceable(40) %40, i8 0, i64 40, i1 false)
  store ptr %40, ptr %41, align 8
  %42 = getelementptr inbounds nuw i8, ptr %40, i64 20
  store i32 0, ptr %42, align 4
  %43 = getelementptr inbounds nuw i8, ptr %2, i64 49
  store i8 1, ptr %43, align 1
  tail call void @check_stack_depth() #16
  %44 = tail call fastcc zeroext i1 @TParserGet(ptr noundef nonnull %2)
  br i1 %44, label %45, label %76

45:                                               ; preds = %TParserCopyInit.exit
  %46 = getelementptr inbounds nuw i8, ptr %2, i64 72
  %47 = load i32, ptr %46, align 8
  %48 = icmp eq i32 %47, 6
  br i1 %48, label %49, label %76

49:                                               ; preds = %45
  %50 = getelementptr inbounds nuw i8, ptr %2, i64 64
  %51 = load i32, ptr %50, align 8
  %52 = load ptr, ptr %7, align 8
  %53 = load i32, ptr %52, align 8
  %54 = add i32 %53, %51
  store i32 %54, ptr %52, align 8
  %55 = getelementptr inbounds nuw i8, ptr %2, i64 68
  %56 = load i32, ptr %55, align 4
  %57 = load ptr, ptr %7, align 8
  %58 = getelementptr inbounds nuw i8, ptr %57, i64 4
  %59 = load i32, ptr %58, align 4
  %60 = add i32 %59, %56
  store i32 %60, ptr %58, align 4
  %61 = load i32, ptr %50, align 8
  %62 = load ptr, ptr %7, align 8
  %63 = getelementptr inbounds nuw i8, ptr %62, i64 12
  %64 = load i32, ptr %63, align 4
  %65 = add i32 %64, %61
  store i32 %65, ptr %63, align 4
  %66 = load i32, ptr %55, align 4
  %67 = load ptr, ptr %7, align 8
  %68 = getelementptr inbounds nuw i8, ptr %67, i64 16
  %69 = load i32, ptr %68, align 8
  %70 = add i32 %69, %66
  store i32 %70, ptr %68, align 8
  %71 = load ptr, ptr %41, align 8
  %72 = getelementptr inbounds nuw i8, ptr %71, i64 8
  %73 = load i32, ptr %72, align 8
  %74 = load ptr, ptr %7, align 8
  %75 = getelementptr inbounds nuw i8, ptr %74, i64 8
  store i32 %73, ptr %75, align 8
  br label %76

76:                                               ; preds = %49, %45, %TParserCopyInit.exit
  %.0 = phi i32 [ 1, %49 ], [ 0, %45 ], [ 0, %TParserCopyInit.exit ]
  %77 = load ptr, ptr %41, align 8
  %.not6.i = icmp eq ptr %77, null
  br i1 %.not6.i, label %TParserCopyClose.exit, label %.lr.ph.i

.lr.ph.i:                                         ; preds = %76, %.lr.ph.i
  %78 = phi ptr [ %80, %.lr.ph.i ], [ %77, %76 ]
  %79 = getelementptr inbounds nuw i8, ptr %78, i64 24
  %80 = load ptr, ptr %79, align 8
  tail call void @pfree(ptr noundef nonnull %78) #16
  store ptr %80, ptr %41, align 8
  %.not.i15 = icmp eq ptr %80, null
  br i1 %.not.i15, label %TParserCopyClose.exit, label %.lr.ph.i, !llvm.loop !34

TParserCopyClose.exit:                            ; preds = %.lr.ph.i, %76
  tail call void @pfree(ptr noundef nonnull %2) #16
  ret i32 %.0
}